target datalayout = "e-m:e-p270:32:32-p271:32:32-p272:64:64-i64:64-i128:128-f80:128-n8:16:32:64-S128"
target triple = "x86_64-pc-linux-gnu"

; Function Attrs: nounwind uwtable
define dso_local signext i8 @Curl_raw_toupper(i8 noundef signext %0) #0 {
  %2 = alloca i8, align 1
  store i8 %0, ptr %2, align 1, !tbaa !4
  %3 = load i8, ptr %2, align 1, !tbaa !4
  %4 = zext i8 %3 to i64
  %5 = getelementptr inbounds nuw [256 x i8], ptr @touppermap, i64 0, i64 %4
  %6 = load i8, ptr %5, align 1, !tbaa !4
  ret i8 %6
}

; Function Attrs: nounwind uwtable
define internal i32 @ncasecompare(ptr noundef %0, ptr noundef %1, i64 noundef %2) #0 {
  %4 = alloca i32, align 4
  %5 = alloca ptr, align 8
  %6 = alloca ptr, align 8
  %7 = alloca i64, align 8
  store ptr %0, ptr %5, align 8, !tbaa !7
  store ptr %1, ptr %6, align 8, !tbaa !7
  store i64 %2, ptr %7, align 8, !tbaa !12
  br label %8

8:                                                ; preds = %34, %3
  %9 = load ptr, ptr %5, align 8, !tbaa !7
  %10 = load i8, ptr %9, align 1, !tbaa !4
  %11 = sext i8 %10 to i32
  %12 = icmp ne i32 %11, 0
  br i1 %12, label %13, label %21

13:                                               ; preds = %8
  %14 = load ptr, ptr %6, align 8, !tbaa !7
  %15 = load i8, ptr %14, align 1, !tbaa !4
  %16 = sext i8 %15 to i32
  %17 = icmp ne i32 %16, 0
  br i1 %17, label %18, label %21

18:                                               ; preds = %13
  %19 = load i64, ptr %7, align 8, !tbaa !12
  %20 = icmp ne i64 %19, 0
  br label %21

21:                                               ; preds = %18, %13, %8
  %22 = phi i1 [ false, %13 ], [ false, %8 ], [ %20, %18 ]
  br i1 %22, label %23, label %41

23:                                               ; preds = %21
  %24 = load ptr, ptr %5, align 8, !tbaa !7
  %25 = load i8, ptr %24, align 1, !tbaa !4
  %26 = call signext i8 @Curl_raw_toupper(i8 noundef signext %25)
  %27 = sext i8 %26 to i32
  %28 = load ptr, ptr %6, align 8, !tbaa !7
  %29 = load i8, ptr %28, align 1, !tbaa !4
  %30 = call signext i8 @Curl_raw_toupper(i8 noundef signext %29)
  %31 = sext i8 %30 to i32
  %32 = icmp ne i32 %27, %31
  br i1 %32, label %33, label %34

33:                                               ; preds = %23
  store i32 0, ptr %4, align 4
  br label %56

34:                                               ; preds = %23
  %35 = load i64, ptr %7, align 8, !tbaa !12
  %36 = add i64 %35, -1
  store i64 %36, ptr %7, align 8, !tbaa !12
  %37 = load ptr, ptr %5, align 8, !tbaa !7
  %38 = getelementptr inbounds nuw i8, ptr %37, i32 1
  store ptr %38, ptr %5, align 8, !tbaa !7
  %39 = load ptr, ptr %6, align 8, !tbaa !7
  %40 = getelementptr inbounds nuw i8, ptr %39, i32 1
  store ptr %40, ptr %6, align 8, !tbaa !7
  br label %8, !llvm.loop !14

41:                                               ; preds = %21
  %42 = load i64, ptr %7, align 8, !tbaa !12
  %43 = icmp eq i64 0, %42
  br i1 %43, label %44, label %45

44:                                               ; preds = %41
  store i32 1, ptr %4, align 4
  br label %56

45:                                               ; preds = %41
  %46 = load ptr, ptr %5, align 8, !tbaa !7
  %47 = load i8, ptr %46, align 1, !tbaa !4
  %48 = call signext i8 @Curl_raw_toupper(i8 noundef signext %47)
  %49 = sext i8 %48 to i32
  %50 = load ptr, ptr %6, align 8, !tbaa !7
  %51 = load i8, ptr %50, align 1, !tbaa !4
  %52 = call signext i8 @Curl_raw_toupper(i8 noundef signext %51)
  %53 = sext i8 %52 to i32
  %54 = icmp eq i32 %49, %53
  %55 = zext i1 %54 to i32
  store i32 %55, ptr %4, align 4
  br label %56

56:                                               ; preds = %45, %44, %33
  %57 = load i32, ptr %4, align 4
  ret i32 %57
}

; Function Attrs: nounwind uwtable
define dso_local i32 @curl_strnequal(ptr noundef %0, ptr noundef %1, i64 noundef %2) #0 {
  %4 = alloca i32, align 4
  %5 = alloca ptr, align 8
  %6 = alloca ptr, align 8
  %7 = alloca i64, align 8
  store ptr %0, ptr %5, align 8, !tbaa !7
  store ptr %1, ptr %6, align 8, !tbaa !7
  store i64 %2, ptr %7, align 8, !tbaa !12
  %8 = load ptr, ptr %5, align 8, !tbaa !7
  %9 = icmp ne ptr %8, null
  br i1 %9, label %10, label %18

10:                                               ; preds = %3
  %11 = load ptr, ptr %6, align 8, !tbaa !7
  %12 = icmp ne ptr %11, null
  br i1 %12, label %13, label %18

13:                                               ; preds = %10
  %14 = load ptr, ptr %5, align 8, !tbaa !7
  %15 = load ptr, ptr %6, align 8, !tbaa !7
  %16 = load i64, ptr %7, align 8, !tbaa !12
  %17 = call i32 @ncasecompare(ptr noundef %14, ptr noundef %15, i64 noundef %16)
  store i32 %17, ptr %4, align 4
  br label %30

18:                                               ; preds = %10, %3
  %19 = load ptr, ptr %5, align 8, !tbaa !7
  %20 = icmp eq ptr null, %19
  br i1 %20, label %21, label %27

21:                                               ; preds = %18
  %22 = load ptr, ptr %6, align 8, !tbaa !7
  %23 = icmp eq ptr null, %22
  br i1 %23, label %24, label %27

24:                                               ; preds = %21
  %25 = load i64, ptr %7, align 8, !tbaa !12
  %26 = icmp ne i64 %25, 0
  br label %27

27:                                               ; preds = %24, %21, %18
  %28 = phi i1 [ false, %21 ], [ false, %18 ], [ %26, %24 ]
  %29 = zext i1 %28 to i32
  store i32 %29, ptr %4, align 4
  br label %30

30:                                               ; preds = %27, %13
  %31 = load i32, ptr %4, align 4
  ret i32 %31
}