; Function Attrs: nofree norecurse nosync nounwind memory(argmem: read) uwtable
define dso_local range(i32 0, 2) i32 @curl_strnequal(ptr noundef readonly %0, ptr noundef readonly %1, i64 noundef %2) local_unnamed_addr #1 {
  %4 = icmp ne ptr %0, null
  %5 = icmp ne ptr %1, null
  %or.cond = and i1 %4, %5
  br i1 %or.cond, label %6, label %34

6:                                                ; preds = %3
  %7 = load i8, ptr %0, align 1, !tbaa !4
  %.not19.i = icmp eq i8 %7, 0
  br i1 %.not19.i, label %.critedge.i, label %.lr.ph.i

.lr.ph.i:                                         ; preds = %6, %19
  %8 = phi i8 [ %23, %19 ], [ %7, %6 ]
  %.022.i = phi i64 [ %20, %19 ], [ %2, %6 ]
  %.01221.i = phi ptr [ %22, %19 ], [ %1, %6 ]
  %.01320.i = phi ptr [ %21, %19 ], [ %0, %6 ]
  %9 = load i8, ptr %.01221.i, align 1, !tbaa !4
  %10 = icmp ne i8 %9, 0
  %11 = icmp ne i64 %.022.i, 0
  %or.cond.i = select i1 %10, i1 %11, i1 false
  br i1 %or.cond.i, label %12, label %.critedge.loopexit.i

12:                                               ; preds = %.lr.ph.i
  %13 = zext i8 %8 to i64
  %14 = getelementptr inbounds nuw [256 x i8], ptr @touppermap, i64 0, i64 %13
  %15 = load i8, ptr %14, align 1, !tbaa !4
  %16 = zext i8 %9 to i64
  %17 = getelementptr inbounds nuw [256 x i8], ptr @touppermap, i64 0, i64 %16
  %18 = load i8, ptr %17, align 1, !tbaa !4
  %.not15.i = icmp eq i8 %15, %18
  br i1 %.not15.i, label %19, label %ncasecompare.exit

19:                                               ; preds = %12
  %20 = add i64 %.022.i, -1
  %21 = getelementptr inbounds nuw i8, ptr %.01320.i, i64 1
  %22 = getelementptr inbounds nuw i8, ptr %.01221.i, i64 1
  %23 = load i8, ptr %21, align 1, !tbaa !4
  %.not.i = icmp eq i8 %23, 0
  br i1 %.not.i, label %.critedge.loopexit.i, label %.lr.ph.i, !llvm.loop !9

.critedge.loopexit.i:                             ; preds = %19, %.lr.ph.i
  %.012.lcssa.ph.i = phi ptr [ %22, %19 ], [ %.01221.i, %.lr.ph.i ]
  %.0.lcssa.ph.i = phi i64 [ %20, %19 ], [ %.022.i, %.lr.ph.i ]
  %.lcssa.ph.i = phi i8 [ 0, %19 ], [ %8, %.lr.ph.i ]
  %24 = zext i8 %.lcssa.ph.i to i64
  br label %.critedge.i

.critedge.i:                                      ; preds = %.critedge.loopexit.i, %6
  %.012.lcssa.i = phi ptr [ %1, %6 ], [ %.012.lcssa.ph.i, %.critedge.loopexit.i ]
  %.0.lcssa.i = phi i64 [ %2, %6 ], [ %.0.lcssa.ph.i, %.critedge.loopexit.i ]
  %.lcssa.i = phi i64 [ 0, %6 ], [ %24, %.critedge.loopexit.i ]
  %25 = icmp eq i64 %.0.lcssa.i, 0
  br i1 %25, label %ncasecompare.exit, label %26

26:                                               ; preds = %.critedge.i
  %27 = getelementptr inbounds nuw [256 x i8], ptr @touppermap, i64 0, i64 %.lcssa.i
  %28 = load i8, ptr %27, align 1, !tbaa !4
  %29 = load i8, ptr %.012.lcssa.i, align 1, !tbaa !4
  %30 = zext i8 %29 to i64
  %31 = getelementptr inbounds nuw [256 x i8], ptr @touppermap, i64 0, i64 %30
  %32 = load i8, ptr %31, align 1, !tbaa !4
  %33 = icmp eq i8 %28, %32
  br label %ncasecompare.exit

34:                                               ; preds = %3
  %35 = icmp eq ptr %0, null
  %36 = icmp eq ptr %1, null
  %or.cond3 = and i1 %35, %36
  %37 = icmp ne i64 %2, 0
  %narrow = and i1 %or.cond3, %37
  br label %ncasecompare.exit

ncasecompare.exit:                                ; preds = %12, %26, %.critedge.i, %34
  %.0.shrunk = phi i1 [ %narrow, %34 ], [ %33, %26 ], [ true, %.critedge.i ], [ false, %12 ]
  %.0 = zext i1 %.0.shrunk to i32
  ret i32 %.0
}